; ModuleID = 'source-C-CXX/27/807.c'
source_filename = "source-C-CXX/27/807.c"
target datalayout = "e-m:e-p270:32:32-p271:32:32-p272:64:64-i64:64-f80:128-n8:16:32:64-S128"
target triple = "x86_64-pc-linux-gnu"

@.str = private unnamed_addr constant [4 x i8] c"%d,\00", align 1
@.str.1 = private unnamed_addr constant [3 x i8] c"%d\00", align 1

; Function Attrs: nounwind sspstrong uwtable
define dso_local void @main() local_unnamed_addr #0 {
  %1 = alloca [3600 x i8], align 16
  %2 = getelementptr inbounds [3600 x i8], [3600 x i8]* %1, i64 0, i64 0
  call void @llvm.lifetime.start.p0i8(i64 3600, i8* nonnull %2) #5
  %3 = call i32 (i8*, ...) bitcast (i32 (...)* @gets to i32 (i8*, ...)*)(i8* nonnull %2) #5
  %4 = call i64 @strlen(i8* noundef nonnull %2) #6
  %5 = shl i64 %4, 32
  %6 = ashr exact i64 %5, 32
  %7 = getelementptr inbounds [3600 x i8], [3600 x i8]* %1, i64 0, i64 %6
  %8 = icmp slt i64 %5, 0
  br i1 %8, label %24, label %9

9:                                                ; preds = %0, %20
  %10 = phi i32 [ %21, %20 ], [ 0, %0 ]
  %11 = phi i8* [ %22, %20 ], [ %2, %0 ]
  %12 = load i8, i8* %11, align 1, !tbaa !5
  %13 = icmp eq i8 %12, 32
  br i1 %13, label %16, label %14

14:                                               ; preds = %9
  %15 = add nsw i32 %10, 1
  br label %20

16:                                               ; preds = %9
  %17 = icmp eq i32 %10, 0
  br i1 %17, label %20, label %18

18:                                               ; preds = %16
  %19 = call i32 (i8*, ...) @printf(i8* nonnull dereferenceable(1) getelementptr inbounds ([4 x i8], [4 x i8]* @.str, i64 0, i64 0), i32 %10)
  br label %20

20:                                               ; preds = %14, %18, %16
  %21 = phi i32 [ %15, %14 ], [ 0, %18 ], [ 0, %16 ]
  %22 = getelementptr inbounds i8, i8* %11, i64 1
  %23 = icmp ugt i8* %22, %7
  br i1 %23, label %24, label %9, !llvm.loop !8

24:                                               ; preds = %20, %0
  %25 = phi i32 [ 0, %0 ], [ %21, %20 ]
  %26 = add nsw i32 %25, -1
  %27 = call i32 (i8*, ...) @printf(i8* nonnull dereferenceable(1) getelementptr inbounds ([3 x i8], [3 x i8]* @.str.1, i64 0, i64 0), i32 %26)
  call void @llvm.lifetime.end.p0i8(i64 3600, i8* nonnull %2) #5
  ret void
}

; Function Attrs: argmemonly mustprogress nofree nosync nounwind willreturn
declare void @llvm.lifetime.start.p0i8(i64 immarg, i8* nocapture) #1

declare i32 @gets(...) local_unnamed_addr #2

; Function Attrs: argmemonly mustprogress nofree nounwind readonly willreturn
declare i64 @strlen(i8* nocapture) local_unnamed_addr #3

; Function Attrs: nofree nounwind
declare noundef i32 @printf(i8* nocapture noundef readonly, ...) local_unnamed_addr #4

; Function Attrs: argmemonly mustprogress nofree nosync nounwind willreturn
declare void @llvm.lifetime.end.p0i8(i64 immarg, i8* nocapture) #1


!llvm.module.flags = !{!0, !1, !2, !3}
!llvm.ident = !{!4}

!0 = !{i32 1, !"wchar_size", i32 4}
!1 = !{i32 7, !"PIC Level", i32 2}
!2 = !{i32 7, !"PIE Level", i32 2}
!3 = !{i32 7, !"uwtable", i32 1}
!4 = !{!"clang version 13.0.0"}
!5 = !{!6, !6, i64 0}
!6 = !{!"omnipotent char", !7, i64 0}
!7 = !{!"Simple C/C++ TBAA"}
!8 = distinct !{!8, !9}
!9 = !{!"llvm.loop.mustprogress"}
